target datalayout = "e-m:e-p270:32:32-p271:32:32-p272:64:64-i64:64-i128:128-f80:128-n8:16:32:64-S128"
target triple = "x86_64-pc-linux-gnu"

%struct.TValue = type { %union.Value, i8 }
%union.Value = type { ptr }
%struct.TString = type { ptr, i8, i8, i8, i8, i32, %union.anon, ptr, ptr, ptr }
%union.anon = type { i64 }

; Function Attrs: nounwind uwtable
define hidden void @luaO_tostring(ptr noundef %0, ptr noundef %1) #0 {
  %3 = alloca ptr, align 8
  %4 = alloca ptr, align 8
  %5 = alloca [64 x i8], align 16
  %6 = alloca i32, align 4
  %7 = alloca ptr, align 8
  %8 = alloca ptr, align 8
  store ptr %0, ptr %3, align 8, !tbaa !11
  store ptr %1, ptr %4, align 8, !tbaa !14
  call void @llvm.lifetime.start.p0(i64 64, ptr %5) #10
  call void @llvm.lifetime.start.p0(i64 4, ptr %6) #10
  %9 = load ptr, ptr %4, align 8, !tbaa !14
  %10 = getelementptr inbounds [64 x i8], ptr %5, i64 0, i64 0
  %11 = call i32 @luaO_tostringbuff(ptr noundef %9, ptr noundef %10)
  store i32 %11, ptr %6, align 4, !tbaa !4
  call void @llvm.lifetime.start.p0(i64 8, ptr %7) #10
  %12 = load ptr, ptr %4, align 8, !tbaa !14
  store ptr %12, ptr %7, align 8, !tbaa !14
  call void @llvm.lifetime.start.p0(i64 8, ptr %8) #10
  %13 = load ptr, ptr %3, align 8, !tbaa !11
  %14 = getelementptr inbounds [64 x i8], ptr %5, i64 0, i64 0
  %15 = load i32, ptr %6, align 4, !tbaa !4
  %16 = zext i32 %15 to i64
  %17 = call ptr @luaS_newlstr(ptr noundef %13, ptr noundef %14, i64 noundef %16)
  store ptr %17, ptr %8, align 8, !tbaa !32
  %18 = load ptr, ptr %8, align 8, !tbaa !32
  %19 = load ptr, ptr %7, align 8, !tbaa !14
  %20 = getelementptr inbounds nuw %struct.TValue, ptr %19, i32 0, i32 0
  store ptr %18, ptr %20, align 8, !tbaa !8
  %21 = load ptr, ptr %8, align 8, !tbaa !32
  %22 = getelementptr inbounds nuw %struct.TString, ptr %21, i32 0, i32 1
  %23 = load i8, ptr %22, align 8, !tbaa !34
  %24 = zext i8 %23 to i32
  %25 = or i32 %24, 64
  %26 = trunc i32 %25 to i8
  %27 = load ptr, ptr %7, align 8, !tbaa !14
  %28 = getelementptr inbounds nuw %struct.TValue, ptr %27, i32 0, i32 1
  store i8 %26, ptr %28, align 8, !tbaa !16
  call void @llvm.lifetime.end.p0(i64 8, ptr %8) #10
  call void @llvm.lifetime.end.p0(i64 8, ptr %7) #10
  call void @llvm.lifetime.end.p0(i64 4, ptr %6) #10
  call void @llvm.lifetime.end.p0(i64 64, ptr %5) #10
  ret void
}