; Function Attrs: nounwind uwtable
define hidden void @luaO_tostring(ptr noundef %0, ptr noundef captures(none) %1) local_unnamed_addr #3 {
  %3 = alloca [64 x i8], align 16
  call void @llvm.lifetime.start.p0(i64 64, ptr nonnull %3) #18
  %4 = call i32 @luaO_tostringbuff(ptr noundef %1, ptr noundef nonnull %3)
  %5 = zext i32 %4 to i64
  %6 = call ptr @luaS_newlstr(ptr noundef %0, ptr noundef nonnull %3, i64 noundef %5) #18
  store ptr %6, ptr %1, align 8, !tbaa !4
  %7 = getelementptr inbounds nuw i8, ptr %6, i64 8
  %8 = load i8, ptr %7, align 8, !tbaa !19
  %9 = or i8 %8, 64
  %10 = getelementptr inbounds nuw i8, ptr %1, i64 8
  store i8 %9, ptr %10, align 8, !tbaa !7
  call void @llvm.lifetime.end.p0(i64 64, ptr nonnull %3) #18
  ret void
}